; Function Attrs: mustprogress nofree norecurse nosync nounwind willreturn memory(argmem: readwrite) uwtable
define void @_ZN7rocksdb25BlockCacheTraceWriterImplC2EPNS_11SystemClockERKNS_28BlockCacheTraceWriterOptionsEOSt10unique_ptrINS_11TraceWriterESt14default_deleteIS7_EE(ptr noundef nonnull writeonly align 8 captures(none) dereferenceable(32) initializes((0, 32)) %0, ptr noundef %1, ptr noundef nonnull readonly align 8 captures(none) dereferenceable(8) %2, ptr noundef nonnull align 8 captures(none) dereferenceable(8) %3) unnamed_addr #9 align 2 {
  store ptr getelementptr inbounds nuw inrange(-16, 32) (i8, ptr @_ZTVN7rocksdb25BlockCacheTraceWriterImplE, i64 16), ptr %0, align 8, !tbaa !39
  %5 = getelementptr inbounds nuw i8, ptr %0, i64 8
  store ptr %1, ptr %5, align 8, !tbaa !41
  %6 = getelementptr inbounds nuw i8, ptr %0, i64 16
  %7 = load i64, ptr %2, align 8, !tbaa !38
  store i64 %7, ptr %6, align 8, !tbaa !38
  %8 = getelementptr inbounds nuw i8, ptr %0, i64 24
  %9 = load i64, ptr %3, align 8, !tbaa !53
  store i64 %9, ptr %8, align 8, !tbaa !53
  store ptr null, ptr %3, align 8, !tbaa !53
  ret void
}